"File: GPIO.c        Assembler  Version HGASM0202      Page 1


   1  0000              ; Generated by holtek-gcc v3.19, Mon Aug 14 20:23:22 2023
   2  0000              ; 
   3  0000              ; Configuration:
   4  0000              ;       with long instruction
   5  0000              ;       Multi-ROM, Multi-RAM
   6  0000              ;       bits_per_rom_unit:16
   7  0000              ;       with mp1
   8  0000              ;       with tbhp, address(0x9)
   9  0000              ;          Use tabrd-const
  10  0000              ;       
  11  0000              ; SFR address of long-instruction arch:
  12  0000              ;    mp0 = -1,1,0
  13  0000              ;    mp1 = 4,3,2
  14  0000              ;    mp2 = 14,13,12
  15  0000              ;    tbp = 9,7,8
  16  0000              ;    acc = 5
  17  0000              ;    pcl = 6
  18  0000              ;    status = 10
  19  0000              ;    bp = 11
  20  0000              ;    intc = 16
  21  0000              ;       
  22  0000              ;       
  23  0000              ; use 'tabrdc' instead of 'tabrd'
  24  0000              ;       
  25  0000              
  26  0000              #pragma translator "holtek-gcc 4.6.4" "3.19" "build 20130711"
  27  0000              ; Rebuild 718
  28  0000              
  29  0000              ir equ [2]
  30  0000              mp equ [3]
  31  0000              sbp equ [4]
  32  0000              acc equ [5]
  33  0000              bp equ [11]
  34  0000              tblp equ [7]
  35  0000              tbhp equ [9]
  36  0000              status equ [10]
  37  0000              c equ [10].0
  38  0000              ac equ [10].1
  39  0000              z equ [10].2
  40  0000              ov equ [10].3
  41  0000              cz equ [10].6
  42  0000              sc equ [10].7
  43  0000              intc equ [16]
  44  0000              mduwr0 equ [59h]
  45  0000              mduwr1 equ [5ah]
  46  0000              mduwr2 equ [5bh]
  47  0000              mduwr3 equ [5ch]
  48  0000              mduwr4 equ [5dh]
  49  0000              mduwr5 equ [5eh]
  50  0000              mduwrctrl equ [5fh]
  51  0000              
  52  0000              extern ra:byte
  53  0000              extern rb:byte
  54  0000              extern rc:byte
  55  0000              extern rd:byte
  56  0000              extern re:byte
  57  0000              extern rf:byte
  58  0000              extern rg:byte
  59  0000              extern rh:byte
"File: GPIO.ASM      Assembler  Version HGASM0202      Page 2

  60  0000              extern _Crom2Prom:near
  61  0000              extern _Crom2PromNext:near
  62  0000              
  63  0000              RAMBANK 0 @BITDATASEC, @BITDATASEC1
  64  0000              @HCCINIT	.section 'data'
  65  0000              @HCCINIT0	.section 'data'
  66  0000              @BITDATASEC	 .section 'data'
  67  0000              @BITDATASEC1	 .section 'data'
  68  0000              
  69  0000              #pragma debug scope 1 1
  70  0000              	extern __DELAY3:near
  71  0000              	extern __DELAYX3:near
  72  0000              	extern __DELAYX6:near
  73  0000              	extern __DELAYY5:near
  74  0000              	extern __DELAYY3:near
  75  0000              	extern _builtin_holtek_delay_2:byte
  76  0000              ___pa equ [20]
  77  0000              ___pac equ [21]
  78  0000              ___pcc equ [28]
  79  0000              ___pb equ [24]
  80  0000              ___pbc equ [25]
  81  0000              ___pc equ [27]
  82  0000              ___pd equ [30]
  83  0000              ___pdc equ [31]
  84  0000              public _gpioPinMode
  85  0000              #pragma debug scope 2 1

  14  0000              #line 14 "c:\users\朝^花\desktop\mike\holtek_c\componets\common\GPIO.c"
  14  0000              _gpioPinMode .section 'code'
  14  0000              _gpioPinMode proc
  14  0000              public _gpioPinMode_2
  14  0000  0004[           local _gpioPinMode_2 db 4 dup(?)	; 2,2
            00
            ]
  14  0000  0080     E  	mov ra,a
  14  0001  0080     R  	mov _gpioPinMode_2[2],a
  14  0002              #pragma debug variable 8 2 _gpioPinMode_2+2 "pin"
  14  0002              #pragma debug variable 8 2 _gpioPinMode_2+0 "number"
  14  0002              #pragma debug variable 8 2 _gpioPinMode_2+1 "states"
  15  0002              #line 15 "c:\users\朝^花\desktop\mike\holtek_c\componets\common\GPIO.c"
  15  0002  0700     E  	mov a,ra
  15  0003  0EF0        	and a,240
  15  0004  0080     R  	mov _gpioPinMode_2[3],a
  15  0005  0700     R  	mov a,_gpioPinMode_2[3]
  15  0006  0A00        	sub a,0
  15  0007  3D0A        	sz z
  15  0008  2800     R  	jmp _L3
  15  0009  0A10        	sub a,(16)-(0)
  15  000A  3D0A        	sz z
  15  000B  2800     R  	jmp _L4
  15  000C              #line 15 "c:\users\朝^花\desktop\mike\holtek_c\componets\common\GPIO.c"
  15  000C  0700     R  	mov a,_gpioPinMode_2[3]
  15  000D  0A20        	sub a,32
  15  000E  3D0A        	sz z
  15  000F  2800     R  	jmp _L5
  15  0010  0700     R  	mov a,_gpioPinMode_2[3]
  15  0011  0A30        	sub a,48
  15  0012  390A        	snz z
  15  0013  2800     R  	jmp _L1
  15  0014  2800     R  	jmp _L14
"File: GPIO.c        Assembler  Version HGASM0202      Page 3

  15  0015              _L3:
  19  0015              #line 19 "c:\users\朝^花\desktop\mike\holtek_c\componets\common\GPIO.c"
  19  0015  1F14        	clr [20]
  20  0016              #line 20 "c:\users\朝^花\desktop\mike\holtek_c\componets\common\GPIO.c"
  20  0016  1080     R  	sz _gpioPinMode_2[1]
  20  0017  2800     R  	jmp _L7
  22  0018              #line 22 "c:\users\朝^花\desktop\mike\holtek_c\componets\common\GPIO.c"
  22  0018  0F01        	mov a,1
  22  0019  0080     E  	mov rb,a
  22  001A  1F00     E  	clr rc
  22  001B  1400     R  	inca _gpioPinMode_2[0]
  22  001C  2800     R  	jmp _LI1
  22  001D              _LI2:
  22  001D  340A        	clr c
  22  001E  1A80     E  	rlc rb
  22  001F  1A80     E  	rlc rc
  22  0020              _LI1:
  22  0020  1785        	sdz acc
  22  0021  2800     R  	jmp _LI2
  22  0022  0100     E  	cpla rb
  22  0023  0080     E  	mov rb,a
  22  0024  0700     E  	mov a,rb
  22  0025  0695        	andm a,[21]
  23  0026              #line 23 "c:\users\朝^花\desktop\mike\holtek_c\componets\common\GPIO.c"
  23  0026  071C        	mov a,[28]
  23  0027  0095        	mov [21],a
  23  0028  2800     R  	jmp _L1
  23  0029              _L7:
  26  0029              #line 26 "c:\users\朝^花\desktop\mike\holtek_c\componets\common\GPIO.c"
  26  0029  1700     R  	sdza _gpioPinMode_2[1]
  26  002A  2800     R  	jmp _L1
  28  002B              #line 28 "c:\users\朝^花\desktop\mike\holtek_c\componets\common\GPIO.c"
  28  002B  0F01        	mov a,1
  28  002C  0080     E  	mov rb,a
  28  002D  1F00     E  	clr rc
  28  002E  1400     R  	inca _gpioPinMode_2[0]
  28  002F  2800     R  	jmp _LI3
  28  0030              _LI4:
  28  0030  340A        	clr c
  28  0031  1A80     E  	rlc rb
  28  0032  1A80     E  	rlc rc
  28  0033              _LI3:
  28  0033  1785        	sdz acc
  28  0034  2800     R  	jmp _LI4
  28  0035  0100     E  	cpla rb
  28  0036  0080     E  	mov ra,a
  28  0037  0700     E  	mov a,ra
  28  0038  0695        	andm a,[21]
  29  0039              #line 29 "c:\users\朝^花\desktop\mike\holtek_c\componets\common\GPIO.c"
  29  0039  0700     E  	mov a,rb
  29  003A  0595        	orm a,[21]
  29  003B  2800     R  	jmp _L1
  29  003C              _L4:
  33  003C              #line 33 "c:\users\朝^花\desktop\mike\holtek_c\componets\common\GPIO.c"
  33  003C  1F18        	clr [24]
  34  003D              #line 34 "c:\users\朝^花\desktop\mike\holtek_c\componets\common\GPIO.c"
  34  003D  1080     R  	sz _gpioPinMode_2[1]
  34  003E  2800     R  	jmp _L9
  36  003F              #line 36 "c:\users\朝^花\desktop\mike\holtek_c\componets\common\GPIO.c"
  36  003F  0F01        	mov a,1
"File: GPIO.c        Assembler  Version HGASM0202      Page 4

  36  0040  0080     E  	mov rb,a
  36  0041  1F00     E  	clr rc
  36  0042  1400     R  	inca _gpioPinMode_2[0]
  36  0043  2800     R  	jmp _LI5
  36  0044              _LI6:
  36  0044  340A        	clr c
  36  0045  1A80     E  	rlc rb
  36  0046  1A80     E  	rlc rc
  36  0047              _LI5:
  36  0047  1785        	sdz acc
  36  0048  2800     R  	jmp _LI6
  36  0049  0100     E  	cpla rb
  36  004A  0080     E  	mov rb,a
  36  004B  0700     E  	mov a,rb
  36  004C  0699        	andm a,[25]
  36  004D  2800     R  	jmp _L1
  36  004E              _L9:
  40  004E              #line 40 "c:\users\朝^花\desktop\mike\holtek_c\componets\common\GPIO.c"
  40  004E  1700     R  	sdza _gpioPinMode_2[1]
  40  004F  2800     R  	jmp _L1
  42  0050              #line 42 "c:\users\朝^花\desktop\mike\holtek_c\componets\common\GPIO.c"
  42  0050  0F01        	mov a,1
  42  0051  0080     E  	mov rb,a
  42  0052  1F00     E  	clr rc
  42  0053  1400     R  	inca _gpioPinMode_2[0]
  42  0054  2800     R  	jmp _LI7
  42  0055              _LI8:
  42  0055  340A        	clr c
  42  0056  1A80     E  	rlc rb
  42  0057  1A80     E  	rlc rc
  42  0058              _LI7:
  42  0058  1785        	sdz acc
  42  0059  2800     R  	jmp _LI8
  42  005A  0100     E  	cpla rb
  42  005B  0080     E  	mov ra,a
  42  005C  0700     E  	mov a,ra
  42  005D  0699        	andm a,[25]
  43  005E              #line 43 "c:\users\朝^花\desktop\mike\holtek_c\componets\common\GPIO.c"
  43  005E  0700     E  	mov a,rb
  43  005F  0599        	orm a,[25]
  43  0060  2800     R  	jmp _L1
  43  0061              _L5:
  47  0061              #line 47 "c:\users\朝^花\desktop\mike\holtek_c\componets\common\GPIO.c"
  47  0061  1F1B        	clr [27]
  48  0062              #line 48 "c:\users\朝^花\desktop\mike\holtek_c\componets\common\GPIO.c"
  48  0062  1080     R  	sz _gpioPinMode_2[1]
  48  0063  2800     R  	jmp _L11
  50  0064              #line 50 "c:\users\朝^花\desktop\mike\holtek_c\componets\common\GPIO.c"
  50  0064  0F01        	mov a,1
  50  0065  0080     E  	mov rb,a
  50  0066  1F00     E  	clr rc
  50  0067  1400     R  	inca _gpioPinMode_2[0]
  50  0068  2800     R  	jmp _LI9
  50  0069              _LI10:
  50  0069  340A        	clr c
  50  006A  1A80     E  	rlc rb
  50  006B  1A80     E  	rlc rc
  50  006C              _LI9:
  50  006C  1785        	sdz acc
  50  006D  2800     R  	jmp _LI10
"File: GPIO.c        Assembler  Version HGASM0202      Page 5

  50  006E  0100     E  	cpla rb
  50  006F  0080     E  	mov rb,a
  50  0070  0700     E  	mov a,rb
  50  0071  069C        	andm a,[28]
  50  0072  2800     R  	jmp _L1
  50  0073              _L11:
  54  0073              #line 54 "c:\users\朝^花\desktop\mike\holtek_c\componets\common\GPIO.c"
  54  0073  1700     R  	sdza _gpioPinMode_2[1]
  54  0074  2800     R  	jmp _L1
  56  0075              #line 56 "c:\users\朝^花\desktop\mike\holtek_c\componets\common\GPIO.c"
  56  0075  0F01        	mov a,1
  56  0076  0080     E  	mov rb,a
  56  0077  1F00     E  	clr rc
  56  0078  1400     R  	inca _gpioPinMode_2[0]
  56  0079  2800     R  	jmp _LI11
  56  007A              _LI12:
  56  007A  340A        	clr c
  56  007B  1A80     E  	rlc rb
  56  007C  1A80     E  	rlc rc
  56  007D              _LI11:
  56  007D  1785        	sdz acc
  56  007E  2800     R  	jmp _LI12
  56  007F  0100     E  	cpla rb
  56  0080  0080     E  	mov ra,a
  56  0081  0700     E  	mov a,ra
  56  0082  069C        	andm a,[28]
  57  0083              #line 57 "c:\users\朝^花\desktop\mike\holtek_c\componets\common\GPIO.c"
  57  0083  0700     E  	mov a,rb
  57  0084  059C        	orm a,[28]
  57  0085  2800     R  	jmp _L1
  57  0086              _L14:
  61  0086              #line 61 "c:\users\朝^花\desktop\mike\holtek_c\componets\common\GPIO.c"
  61  0086  1F1E        	clr [30]
  62  0087              #line 62 "c:\users\朝^花\desktop\mike\holtek_c\componets\common\GPIO.c"
  62  0087  1080     R  	sz _gpioPinMode_2[1]
  62  0088  2800     R  	jmp _L12
  64  0089              #line 64 "c:\users\朝^花\desktop\mike\holtek_c\componets\common\GPIO.c"
  64  0089  0F01        	mov a,1
  64  008A  0080     E  	mov rb,a
  64  008B  1F00     E  	clr rc
  64  008C  1400     R  	inca _gpioPinMode_2[0]
  64  008D  2800     R  	jmp _LI13
  64  008E              _LI14:
  64  008E  340A        	clr c
  64  008F  1A80     E  	rlc rb
  64  0090  1A80     E  	rlc rc
  64  0091              _LI13:
  64  0091  1785        	sdz acc
  64  0092  2800     R  	jmp _LI14
  64  0093  0100     E  	cpla rb
  64  0094  0080     E  	mov rb,a
  64  0095  0700     E  	mov a,rb
  64  0096  069F        	andm a,[31]
  64  0097  2800     R  	jmp _L1
  64  0098              _L12:
  68  0098              #line 68 "c:\users\朝^花\desktop\mike\holtek_c\componets\common\GPIO.c"
  68  0098  1700     R  	sdza _gpioPinMode_2[1]
  68  0099  2800     R  	jmp _L1
  70  009A              #line 70 "c:\users\朝^花\desktop\mike\holtek_c\componets\common\GPIO.c"
  70  009A  0F01        	mov a,1
"File: GPIO.c        Assembler  Version HGASM0202      Page 6

  70  009B  0080     E  	mov rb,a
  70  009C  1F00     E  	clr rc
  70  009D  1400     R  	inca _gpioPinMode_2[0]
  70  009E  2800     R  	jmp _LI15
  70  009F              _LI16:
  70  009F  340A        	clr c
  70  00A0  1A80     E  	rlc rb
  70  00A1  1A80     E  	rlc rc
  70  00A2              _LI15:
  70  00A2  1785        	sdz acc
  70  00A3  2800     R  	jmp _LI16
  70  00A4  0100     E  	cpla rb
  70  00A5  0080     E  	mov ra,a
  70  00A6  0700     E  	mov a,ra
  70  00A7  069F        	andm a,[31]
  71  00A8              #line 71 "c:\users\朝^花\desktop\mike\holtek_c\componets\common\GPIO.c"
  71  00A8  0700     E  	mov a,rb
  71  00A9  059F        	orm a,[31]
  71  00AA              _L1:
  71  00AA  0003        	ret
  71  00AB              _gpioPinMode endp
  71  00AB              #line 71 "c:\users\朝^花\desktop\mike\holtek_c\componets\common\GPIO.c"
  71  00AB              #pragma debug scope 1 1
  71  00AB              public _gpiodigitalWrite
  71  00AB              #pragma debug scope 3 1
  78  00AB              #line 78 "c:\users\朝^花\desktop\mike\holtek_c\componets\common\GPIO.c"
  78  0000              _gpiodigitalWrite .section 'code'
  78  0000              _gpiodigitalWrite proc
  78  0000              public _gpiodigitalWrite_2
  78  0000  0004[           local _gpiodigitalWrite_2 db 4 dup(?)	; 2,2
            00
            ]
  78  0000  0080     E  	mov ra,a
  78  0001  0080     R  	mov _gpiodigitalWrite_2[2],a
  78  0002              #pragma debug variable 8 3 _gpiodigitalWrite_2+2 "pin"
  78  0002              #pragma debug variable 8 3 _gpiodigitalWrite_2+0 "number"
  78  0002              #pragma debug variable 8 3 _gpiodigitalWrite_2+1 "mode"
  79  0002              #line 79 "c:\users\朝^花\desktop\mike\holtek_c\componets\common\GPIO.c"
  79  0002  0700     E  	mov a,ra
  79  0003  0EF0        	and a,240
  79  0004  0080     R  	mov _gpiodigitalWrite_2[3],a
  79  0005  0700     R  	mov a,_gpiodigitalWrite_2[3]
  79  0006  0A00        	sub a,0
  79  0007  3D0A        	sz z
  79  0008  2800     R  	jmp _L17
  79  0009  0A10        	sub a,(16)-(0)
  79  000A  3D0A        	sz z
  79  000B  2800     R  	jmp _L18
  79  000C              #line 79 "c:\users\朝^花\desktop\mike\holtek_c\componets\common\GPIO.c"
  79  000C  0700     R  	mov a,_gpiodigitalWrite_2[3]
  79  000D  0A20        	sub a,32
  79  000E  3D0A        	sz z
  79  000F  2800     R  	jmp _L19
  79  0010  0700     R  	mov a,_gpiodigitalWrite_2[3]
  79  0011  0A30        	sub a,48
  79  0012  390A        	snz z
  79  0013  2800     R  	jmp _L15
  79  0014  2800     R  	jmp _L25
  79  0015              _L17:
  82  0015              #line 82 "c:\users\朝^花\desktop\mike\holtek_c\componets\common\GPIO.c"
"File: GPIO.c        Assembler  Version HGASM0202      Page 7

  82  0015  1700     R  	sdza _gpiodigitalWrite_2[1]
  82  0016  2800     R  	jmp _L21
  84  0017              #line 84 "c:\users\朝^花\desktop\mike\holtek_c\componets\common\GPIO.c"
  84  0017  0F01        	mov a,1
  84  0018  0080     E  	mov rb,a
  84  0019  1F00     E  	clr rc
  84  001A  1400     R  	inca _gpiodigitalWrite_2[0]
  84  001B  2800     R  	jmp _LI17
  84  001C              _LI18:
  84  001C  340A        	clr c
  84  001D  1A80     E  	rlc rb
  84  001E  1A80     E  	rlc rc
  84  001F              _LI17:
  84  001F  1785        	sdz acc
  84  0020  2800     R  	jmp _LI18
  84  0021  0100     E  	cpla rb
  84  0022  0080     E  	mov ra,a
  84  0023  0700     E  	mov a,ra
  84  0024  0694        	andm a,[20]
  85  0025              #line 85 "c:\users\朝^花\desktop\mike\holtek_c\componets\common\GPIO.c"
  85  0025  0700     E  	mov a,rb
  85  0026  0594        	orm a,[20]
  85  0027  2800     R  	jmp _L15
  85  0028              _L21:
  88  0028              #line 88 "c:\users\朝^花\desktop\mike\holtek_c\componets\common\GPIO.c"
  88  0028  1080     R  	sz _gpiodigitalWrite_2[1]
  88  0029  2800     R  	jmp _L15
  90  002A              #line 90 "c:\users\朝^花\desktop\mike\holtek_c\componets\common\GPIO.c"
  90  002A  0F01        	mov a,1
  90  002B  0080     E  	mov rb,a
  90  002C  1F00     E  	clr rc
  90  002D  1400     R  	inca _gpiodigitalWrite_2[0]
  90  002E  2800     R  	jmp _LI19
  90  002F              _LI20:
  90  002F  340A        	clr c
  90  0030  1A80     E  	rlc rb
  90  0031  1A80     E  	rlc rc
  90  0032              _LI19:
  90  0032  1785        	sdz acc
  90  0033  2800     R  	jmp _LI20
  90  0034  0100     E  	cpla rb
  90  0035  0080     E  	mov rb,a
  90  0036  0700     E  	mov a,rb
  90  0037  0694        	andm a,[20]
  90  0038  2800     R  	jmp _L15
  90  0039              _L18:
  96  0039              #line 96 "c:\users\朝^花\desktop\mike\holtek_c\componets\common\GPIO.c"
  96  0039  1700     R  	sdza _gpiodigitalWrite_2[1]
  96  003A  2800     R  	jmp _L22
  98  003B              #line 98 "c:\users\朝^花\desktop\mike\holtek_c\componets\common\GPIO.c"
  98  003B  0F01        	mov a,1
  98  003C  0080     E  	mov rb,a
  98  003D  1F00     E  	clr rc
  98  003E  1400     R  	inca _gpiodigitalWrite_2[0]
  98  003F  2800     R  	jmp _LI21
  98  0040              _LI22:
  98  0040  340A        	clr c
  98  0041  1A80     E  	rlc rb
  98  0042  1A80     E  	rlc rc
  98  0043              _LI21:
"File: GPIO.c        Assembler  Version HGASM0202      Page 8

  98  0043  1785        	sdz acc
  98  0044  2800     R  	jmp _LI22
  98  0045  0100     E  	cpla rb
  98  0046  0080     E  	mov ra,a
  98  0047  0700     E  	mov a,ra
  98  0048  0698        	andm a,[24]
  99  0049              #line 99 "c:\users\朝^花\desktop\mike\holtek_c\componets\common\GPIO.c"
  99  0049  0700     E  	mov a,rb
  99  004A  0598        	orm a,[24]
  99  004B  2800     R  	jmp _L15
  99  004C              _L22:
 102  004C              #line 102 "c:\users\朝^花\desktop\mike\holtek_c\componets\common\GPIO.c"
 102  004C  1080     R  	sz _gpiodigitalWrite_2[1]
 102  004D  2800     R  	jmp _L15
 104  004E              #line 104 "c:\users\朝^花\desktop\mike\holtek_c\componets\common\GPIO.c"
 104  004E  0F01        	mov a,1
 104  004F  0080     E  	mov rb,a
 104  0050  1F00     E  	clr rc
 104  0051  1400     R  	inca _gpiodigitalWrite_2[0]
 104  0052  2800     R  	jmp _LI23
 104  0053              _LI24:
 104  0053  340A        	clr c
 104  0054  1A80     E  	rlc rb
 104  0055  1A80     E  	rlc rc
 104  0056              _LI23:
 104  0056  1785        	sdz acc
 104  0057  2800     R  	jmp _LI24
 104  0058  0100     E  	cpla rb
 104  0059  0080     E  	mov rb,a
 104  005A  0700     E  	mov a,rb
 104  005B  0698        	andm a,[24]
 104  005C  2800     R  	jmp _L15
 104  005D              _L19:
 111  005D              #line 111 "c:\users\朝^花\desktop\mike\holtek_c\componets\common\GPIO.c"
 111  005D  1700     R  	sdza _gpiodigitalWrite_2[1]
 111  005E  2800     R  	jmp _L23
 113  005F              #line 113 "c:\users\朝^花\desktop\mike\holtek_c\componets\common\GPIO.c"
 113  005F  0F01        	mov a,1
 113  0060  0080     E  	mov rb,a
 113  0061  1F00     E  	clr rc
 113  0062  1400     R  	inca _gpiodigitalWrite_2[0]
 113  0063  2800     R  	jmp _LI25
 113  0064              _LI26:
 113  0064  340A        	clr c
 113  0065  1A80     E  	rlc rb
 113  0066  1A80     E  	rlc rc
 113  0067              _LI25:
 113  0067  1785        	sdz acc
 113  0068  2800     R  	jmp _LI26
 113  0069  0100     E  	cpla rb
 113  006A  0080     E  	mov ra,a
 113  006B  0700     E  	mov a,ra
 113  006C  069B        	andm a,[27]
 114  006D              #line 114 "c:\users\朝^花\desktop\mike\holtek_c\componets\common\GPIO.c"
 114  006D  0700     E  	mov a,rb
 114  006E  059B        	orm a,[27]
 114  006F  2800     R  	jmp _L15
 114  0070              _L23:
 117  0070              #line 117 "c:\users\朝^花\desktop\mike\holtek_c\componets\common\GPIO.c"
 117  0070  1080     R  	sz _gpiodigitalWrite_2[1]
"File: GPIO.c        Assembler  Version HGASM0202      Page 9

 117  0071  2800     R  	jmp _L15
 119  0072              #line 119 "c:\users\朝^花\desktop\mike\holtek_c\componets\common\GPIO.c"
 119  0072  0F01        	mov a,1
 119  0073  0080     E  	mov rb,a
 119  0074  1F00     E  	clr rc
 119  0075  1400     R  	inca _gpiodigitalWrite_2[0]
 119  0076  2800     R  	jmp _LI27
 119  0077              _LI28:
 119  0077  340A        	clr c
 119  0078  1A80     E  	rlc rb
 119  0079  1A80     E  	rlc rc
 119  007A              _LI27:
 119  007A  1785        	sdz acc
 119  007B  2800     R  	jmp _LI28
 119  007C  0100     E  	cpla rb
 119  007D  0080     E  	mov rb,a
 119  007E  0700     E  	mov a,rb
 119  007F  069B        	andm a,[27]
 119  0080  2800     R  	jmp _L15
 119  0081              _L25:
 124  0081              #line 124 "c:\users\朝^花\desktop\mike\holtek_c\componets\common\GPIO.c"
 124  0081  1700     R  	sdza _gpiodigitalWrite_2[1]
 124  0082  2800     R  	jmp _L24
 126  0083              #line 126 "c:\users\朝^花\desktop\mike\holtek_c\componets\common\GPIO.c"
 126  0083  0F01        	mov a,1
 126  0084  0080     E  	mov rb,a
 126  0085  1F00     E  	clr rc
 126  0086  1400     R  	inca _gpiodigitalWrite_2[0]
 126  0087  2800     R  	jmp _LI29
 126  0088              _LI30:
 126  0088  340A        	clr c
 126  0089  1A80     E  	rlc rb
 126  008A  1A80     E  	rlc rc
 126  008B              _LI29:
 126  008B  1785        	sdz acc
 126  008C  2800     R  	jmp _LI30
 126  008D  0100     E  	cpla rb
 126  008E  0080     E  	mov ra,a
 126  008F  0700     E  	mov a,ra
 126  0090  069E        	andm a,[30]
 127  0091              #line 127 "c:\users\朝^花\desktop\mike\holtek_c\componets\common\GPIO.c"
 127  0091  0700     E  	mov a,rb
 127  0092  059E        	orm a,[30]
 127  0093  2800     R  	jmp _L15
 127  0094              _L24:
 130  0094              #line 130 "c:\users\朝^花\desktop\mike\holtek_c\componets\common\GPIO.c"
 130  0094  1080     R  	sz _gpiodigitalWrite_2[1]
 130  0095  2800     R  	jmp _L15
 132  0096              #line 132 "c:\users\朝^花\desktop\mike\holtek_c\componets\common\GPIO.c"
 132  0096  0F01        	mov a,1
 132  0097  0080     E  	mov rb,a
 132  0098  1F00     E  	clr rc
 132  0099  1400     R  	inca _gpiodigitalWrite_2[0]
 132  009A  2800     R  	jmp _LI31
 132  009B              _LI32:
 132  009B  340A        	clr c
 132  009C  1A80     E  	rlc rb
 132  009D  1A80     E  	rlc rc
 132  009E              _LI31:
 132  009E  1785        	sdz acc
"File: GPIO.c        Assembler  Version HGASM0202      Page 10

 132  009F  2800     R  	jmp _LI32
 132  00A0  0100     E  	cpla rb
 132  00A1  0080     E  	mov rb,a
 132  00A2  0700     E  	mov a,rb
 132  00A3  069E        	andm a,[30]
 132  00A4              _L15:
 132  00A4  0003        	ret
 132  00A5              _gpiodigitalWrite endp
 132  00A5              #line 132 "c:\users\朝^花\desktop\mike\holtek_c\componets\common\GPIO.c"
 132  00A5              #pragma debug scope 1 1
 132  00A5              public _gpiodigitalRead
 132  00A5              #pragma debug scope 4 1
 140  00A5              #line 140 "c:\users\朝^花\desktop\mike\holtek_c\componets\common\GPIO.c"
 140  0000              _gpiodigitalRead .section 'code'
 140  0000              _gpiodigitalRead proc
 140  0000              public _gpiodigitalRead_2
 140  0000  0003[           local _gpiodigitalRead_2 db 3 dup(?)	; 1,2
            00
            ]
 140  0000  0080     E  	mov ra,a
 140  0001  0080     R  	mov _gpiodigitalRead_2[1],a
 140  0002              #pragma debug variable 8 4 _gpiodigitalRead_2+1 "pin"
 140  0002              #pragma debug variable 8 4 _gpiodigitalRead_2+0 "number"
 144  0002              #line 144 "c:\users\朝^花\desktop\mike\holtek_c\componets\common\GPIO.c"
 144  0002  0700     E  	mov a,ra
 144  0003  0EF0        	and a,240
 144  0004  0080     R  	mov _gpiodigitalRead_2[2],a
 144  0005  0700     R  	mov a,_gpiodigitalRead_2[2]
 144  0006  0A00        	sub a,0
 144  0007  3D0A        	sz z
 144  0008  2800     R  	jmp _L28
 144  0009  0A10        	sub a,(16)-(0)
 144  000A  3D0A        	sz z
 144  000B  2800     R  	jmp _L29
 144  000C              #line 144 "c:\users\朝^花\desktop\mike\holtek_c\componets\common\GPIO.c"
 144  000C  0700     R  	mov a,_gpiodigitalRead_2[2]
 144  000D  0A20        	sub a,32
 144  000E  3D0A        	sz z
 144  000F  2800     R  	jmp _L30
 144  0010  0700     R  	mov a,_gpiodigitalRead_2[2]
 144  0011  0A30        	sub a,48
 144  0012  390A        	snz z
 144  0013  2800     R  	jmp _L49
 205  0014              #line 205 "c:\users\朝^花\desktop\mike\holtek_c\componets\common\GPIO.c"
 205  0014  0F01        	mov a,1
 205  0015  0080     E  	mov rb,a
 205  0016  1F00     E  	clr rc
 205  0017  1400     R  	inca _gpiodigitalRead_2[0]
 205  0018  2800     R  	jmp _LI33
 205  0019              _LI34:
 205  0019  340A        	clr c
 205  001A  1A80     E  	rlc rb
 205  001B  1A80     E  	rlc rc
 205  001C              _LI33:
 205  001C  1785        	sdz acc
 205  001D  2800     R  	jmp _LI34
 205  001E  071E        	mov a,[30]
 205  001F  0680     E  	andm a,rb
 205  0020  0700     E  	mov a,rb
 205  0021  0080     R  	mov _value3[0],a
"File: GPIO.c        Assembler  Version HGASM0202      Page 11

 205  0022  2800     R  	jmp _L50
 205  0023              _L28:
 162  0023              #line 162 "c:\users\朝^花\desktop\mike\holtek_c\componets\common\GPIO.c"
 162  0023  0F01        	mov a,1
 162  0024  0080     E  	mov rb,a
 162  0025  1F00     E  	clr rc
 162  0026  1400     R  	inca _gpiodigitalRead_2[0]
 162  0027  2800     R  	jmp _LI35
 162  0028              _LI36:
 162  0028  340A        	clr c
 162  0029  1A80     E  	rlc rb
 162  002A  1A80     E  	rlc rc
 162  002B              _LI35:
 162  002B  1785        	sdz acc
 162  002C  2800     R  	jmp _LI36
 162  002D  0714        	mov a,[20]
 162  002E  0680     E  	andm a,rb
 162  002F  0700     E  	mov a,rb
 162  0030  0080     R  	mov _value[0],a
 162  0031  2800     R  	jmp _L50
 162  0032              _L29:
 176  0032              #line 176 "c:\users\朝^花\desktop\mike\holtek_c\componets\common\GPIO.c"
 176  0032  0F01        	mov a,1
 176  0033  0080     E  	mov rb,a
 176  0034  1F00     E  	clr rc
 176  0035  1400     R  	inca _gpiodigitalRead_2[0]
 176  0036  2800     R  	jmp _LI37
 176  0037              _LI38:
 176  0037  340A        	clr c
 176  0038  1A80     E  	rlc rb
 176  0039  1A80     E  	rlc rc
 176  003A              _LI37:
 176  003A  1785        	sdz acc
 176  003B  2800     R  	jmp _LI38
 176  003C  0718        	mov a,[24]
 176  003D  0680     E  	andm a,rb
 176  003E  0700     E  	mov a,rb
 176  003F  0080     R  	mov _value1[0],a
 176  0040  2800     R  	jmp _L50
 176  0041              _L30:
 190  0041              #line 190 "c:\users\朝^花\desktop\mike\holtek_c\componets\common\GPIO.c"
 190  0041  0F01        	mov a,1
 190  0042  0080     E  	mov rb,a
 190  0043  1F00     E  	clr rc
 190  0044  1400     R  	inca _gpiodigitalRead_2[0]
 190  0045  2800     R  	jmp _LI39
 190  0046              _LI40:
 190  0046  340A        	clr c
 190  0047  1A80     E  	rlc rb
 190  0048  1A80     E  	rlc rc
 190  0049              _LI39:
 190  0049  1785        	sdz acc
 190  004A  2800     R  	jmp _LI40
 190  004B  071B        	mov a,[27]
 190  004C  0680     E  	andm a,rb
 190  004D  0700     E  	mov a,rb
 190  004E  0080     R  	mov _value2[0],a
 190  004F              _L50:
 206  004F              #line 206 "c:\users\朝^花\desktop\mike\holtek_c\componets\common\GPIO.c"
 206  004F  0F01        	mov a,1
"File: GPIO.c        Assembler  Version HGASM0202      Page 12

 206  0050  0080     E  	mov ra,a
 206  0051  1700     E  	sdza rb
 206  0052  2800     R  	jmp _LI41
 206  0053  2800     R  	jmp _L27
 206  0054              _LI41:
 206  0054              _L49:
 216  0054              #line 216 "c:\users\朝^花\desktop\mike\holtek_c\componets\common\GPIO.c"
 216  0054  1F00     E  	clr ra
 216  0055              _L27:
 217  0055              #line 217 "c:\users\朝^花\desktop\mike\holtek_c\componets\common\GPIO.c"
 217  0055  0700     E  	mov a,ra
 217  0056  0003        	ret
 217  0057              _gpiodigitalRead endp
 217  0057              #line 217 "c:\users\朝^花\desktop\mike\holtek_c\componets\common\GPIO.c"
 217  0057              #pragma debug scope 1 1
 217  0057              ___sadc0 equ [105]
 217  0057              ___sadc1 equ [106]
 217  0057              ___sadc2 equ [107]
 217  0057              ___pcs0 equ [337]
 217  0057              ___pcs1 equ [338]
 217  0057              ___sadoh equ [104]
 217  0057              ___sadol equ [103]
 217  0057              public _gpioanalogRead
 217  0057              #pragma debug scope 5 1
 221  0057              #line 221 "c:\users\朝^花\desktop\mike\holtek_c\componets\common\GPIO.c"
 221  0000              _gpioanalogRead .section 'code'
 221  0000              _gpioanalogRead proc
 221  0000              public _gpioanalogRead_2
 221  0000  0002[           local _gpioanalogRead_2 db 2 dup(?)	; 1,1
            00
            ]
 221  0000  0080     R  	mov _gpioanalogRead_2[1],a
 221  0001              #pragma debug variable 8 5 _gpioanalogRead_2+1 "pin"
 221  0001              #pragma debug variable 8 5 _gpioanalogRead_2+0 "number"
 227  0001              #line 227 "c:\users\朝^花\desktop\mike\holtek_c\componets\common\GPIO.c"
 227  0001  3069        	set [105].0
 228  0002              #line 228 "c:\users\朝^花\desktop\mike\holtek_c\componets\common\GPIO.c"
 228  0002  32E9        	set [105].5
 229  0003              #line 229 "c:\users\朝^花\desktop\mike\holtek_c\componets\common\GPIO.c"
 229  0003  0F03        	mov a,3
 229  0004  05EA        	orm a,[106]
 230  0005              #line 230 "c:\users\朝^花\desktop\mike\holtek_c\componets\common\GPIO.c"
 230  0005  326B        	set [107].4
 232  0006              #line 232 "c:\users\朝^花\desktop\mike\holtek_c\componets\common\GPIO.c"
 232  0006  33E9        	set [105].7
 233  0007              #line 233 "c:\users\朝^花\desktop\mike\holtek_c\componets\common\GPIO.c"
 233  0007  37E9        	clr [105].7
 234  0008              #line 234 "c:\users\朝^花\desktop\mike\holtek_c\componets\common\GPIO.c"
 234  0008  0700     R  	mov a,_gpioanalogRead_2[1]
 234  0009  0EF0        	and a,240
 234  000A  0080     E  	mov ra,a
 234  000B  0700     E  	mov a,ra
 234  000C  0A20        	sub a,32
 234  000D  390A        	snz z
 234  000E  2800     R  	jmp _L52
 238  000F              #line 238 "c:\users\朝^花\desktop\mike\holtek_c\componets\common\GPIO.c"
 238  000F  1080     R  	sz _gpioanalogRead_2[0]
 238  0010  2800     R  	jmp _L54
 240  0011              #line 240 "c:\users\朝^花\desktop\mike\holtek_c\componets\common\GPIO.c"
 240  0011  0FFC        	mov a,252
"File: GPIO.c        Assembler  Version HGASM0202      Page 13

 240  0012  86D1 0001   	landm a,[337]
 241  0014              #line 241 "c:\users\朝^花\desktop\mike\holtek_c\componets\common\GPIO.c"
 241  0014  0F03        	mov a,3
 241  0015  85D1 0001   	lorm a,[337]
 243  0017              #line 243 "c:\users\朝^花\desktop\mike\holtek_c\componets\common\GPIO.c"
 243  0017  0FF0        	mov a,240
 243  0018  06E9        	andm a,[105]
 243  0019  2800     R  	jmp _L52
 243  001A              _L54:
 247  001A              #line 247 "c:\users\朝^花\desktop\mike\holtek_c\componets\common\GPIO.c"
 247  001A  1700     R  	sdza _gpioanalogRead_2[0]
 247  001B  2800     R  	jmp _L55
 249  001C              #line 249 "c:\users\朝^花\desktop\mike\holtek_c\componets\common\GPIO.c"
 249  001C  0FF3        	mov a,243
 249  001D  86D1 0001   	landm a,[337]
 250  001F              #line 250 "c:\users\朝^花\desktop\mike\holtek_c\componets\common\GPIO.c"
 250  001F  0F0C        	mov a,12
 250  0020  85D1 0001   	lorm a,[337]
 252  0022              #line 252 "c:\users\朝^花\desktop\mike\holtek_c\componets\common\GPIO.c"
 252  0022  0FF0        	mov a,240
 252  0023  06E9        	andm a,[105]
 253  0024              #line 253 "c:\users\朝^花\desktop\mike\holtek_c\componets\common\GPIO.c"
 253  0024  3069        	set [105].0
 253  0025  2800     R  	jmp _L52
 253  0026              _L55:
 256  0026              #line 256 "c:\users\朝^花\desktop\mike\holtek_c\componets\common\GPIO.c"
 256  0026  0700     R  	mov a,_gpioanalogRead_2[0]
 256  0027  0A02        	sub a,2
 256  0028  390A        	snz z
 256  0029  2800     R  	jmp _L56
 258  002A              #line 258 "c:\users\朝^花\desktop\mike\holtek_c\componets\common\GPIO.c"
 258  002A  0FCF        	mov a,207
 258  002B  86D1 0001   	landm a,[337]
 259  002D              #line 259 "c:\users\朝^花\desktop\mike\holtek_c\componets\common\GPIO.c"
 259  002D  0F30        	mov a,48
 259  002E  85D1 0001   	lorm a,[337]
 260  0030              #line 260 "c:\users\朝^花\desktop\mike\holtek_c\componets\common\GPIO.c"
 260  0030  0FF0        	mov a,240
 260  0031  06E9        	andm a,[105]
 261  0032              #line 261 "c:\users\朝^花\desktop\mike\holtek_c\componets\common\GPIO.c"
 261  0032  30E9        	set [105].1
 261  0033  2800     R  	jmp _L52
 261  0034              _L56:
 264  0034              #line 264 "c:\users\朝^花\desktop\mike\holtek_c\componets\common\GPIO.c"
 264  0034  0700     R  	mov a,_gpioanalogRead_2[0]
 264  0035  0A03        	sub a,3
 264  0036  390A        	snz z
 264  0037  2800     R  	jmp _L57
 266  0038              #line 266 "c:\users\朝^花\desktop\mike\holtek_c\componets\common\GPIO.c"
 266  0038  0F3F        	mov a,63
 266  0039  86D1 0001   	landm a,[337]
 267  003B              #line 267 "c:\users\朝^花\desktop\mike\holtek_c\componets\common\GPIO.c"
 267  003B  0FC0        	mov a,192
 267  003C  85D1 0001   	lorm a,[337]
 268  003E              #line 268 "c:\users\朝^花\desktop\mike\holtek_c\componets\common\GPIO.c"
 268  003E  0FF0        	mov a,240
 268  003F  06E9        	andm a,[105]
 269  0040              #line 269 "c:\users\朝^花\desktop\mike\holtek_c\componets\common\GPIO.c"
 269  0040  0F03        	mov a,3
 269  0041  05E9        	orm a,[105]
"File: GPIO.c        Assembler  Version HGASM0202      Page 14

 269  0042  2800     R  	jmp _L52
 269  0043              _L57:
 273  0043              #line 273 "c:\users\朝^花\desktop\mike\holtek_c\componets\common\GPIO.c"
 273  0043  0700     R  	mov a,_gpioanalogRead_2[0]
 273  0044  0A04        	sub a,4
 273  0045  390A        	snz z
 273  0046  2800     R  	jmp _L58
 275  0047              #line 275 "c:\users\朝^花\desktop\mike\holtek_c\componets\common\GPIO.c"
 275  0047  0FFC        	mov a,252
 275  0048  86D2 0001   	landm a,[338]
 276  004A              #line 276 "c:\users\朝^花\desktop\mike\holtek_c\componets\common\GPIO.c"
 276  004A  0F03        	mov a,3
 276  004B  85D2 0001   	lorm a,[338]
 277  004D              #line 277 "c:\users\朝^花\desktop\mike\holtek_c\componets\common\GPIO.c"
 277  004D  0FF0        	mov a,240
 277  004E  06E9        	andm a,[105]
 278  004F              #line 278 "c:\users\朝^花\desktop\mike\holtek_c\componets\common\GPIO.c"
 278  004F  3169        	set [105].2
 278  0050  2800     R  	jmp _L52
 278  0051              _L58:
 281  0051              #line 281 "c:\users\朝^花\desktop\mike\holtek_c\componets\common\GPIO.c"
 281  0051  0700     R  	mov a,_gpioanalogRead_2[0]
 281  0052  0A05        	sub a,5
 281  0053  390A        	snz z
 281  0054  2800     R  	jmp _L59
 283  0055              #line 283 "c:\users\朝^花\desktop\mike\holtek_c\componets\common\GPIO.c"
 283  0055  0FF3        	mov a,243
 283  0056  86D2 0001   	landm a,[338]
 284  0058              #line 284 "c:\users\朝^花\desktop\mike\holtek_c\componets\common\GPIO.c"
 284  0058  0F0C        	mov a,12
 284  0059  85D2 0001   	lorm a,[338]
 285  005B              #line 285 "c:\users\朝^花\desktop\mike\holtek_c\componets\common\GPIO.c"
 285  005B  0FF0        	mov a,240
 285  005C  06E9        	andm a,[105]
 286  005D              #line 286 "c:\users\朝^花\desktop\mike\holtek_c\componets\common\GPIO.c"
 286  005D  0F05        	mov a,5
 286  005E  05E9        	orm a,[105]
 286  005F  2800     R  	jmp _L52
 286  0060              _L59:
 289  0060              #line 289 "c:\users\朝^花\desktop\mike\holtek_c\componets\common\GPIO.c"
 289  0060  0700     R  	mov a,_gpioanalogRead_2[0]
 289  0061  0A06        	sub a,6
 289  0062  390A        	snz z
 289  0063  2800     R  	jmp _L60
 291  0064              #line 291 "c:\users\朝^花\desktop\mike\holtek_c\componets\common\GPIO.c"
 291  0064  0FCF        	mov a,207
 291  0065  86D2 0001   	landm a,[338]
 292  0067              #line 292 "c:\users\朝^花\desktop\mike\holtek_c\componets\common\GPIO.c"
 292  0067  0F30        	mov a,48
 292  0068  85D2 0001   	lorm a,[338]
 293  006A              #line 293 "c:\users\朝^花\desktop\mike\holtek_c\componets\common\GPIO.c"
 293  006A  0FF0        	mov a,240
 293  006B  06E9        	andm a,[105]
 294  006C              #line 294 "c:\users\朝^花\desktop\mike\holtek_c\componets\common\GPIO.c"
 294  006C  0F06        	mov a,6
 294  006D  05E9        	orm a,[105]
 294  006E  2800     R  	jmp _L52
 294  006F              _L60:
 296  006F              #line 296 "c:\users\朝^花\desktop\mike\holtek_c\componets\common\GPIO.c"
 296  006F  0700     R  	mov a,_gpioanalogRead_2[0]
"File: GPIO.c        Assembler  Version HGASM0202      Page 15

 296  0070  0A07        	sub a,7
 296  0071  390A        	snz z
 296  0072  2800     R  	jmp _L52
 298  0073              #line 298 "c:\users\朝^花\desktop\mike\holtek_c\componets\common\GPIO.c"
 298  0073  0F3F        	mov a,63
 298  0074  86D2 0001   	landm a,[338]
 299  0076              #line 299 "c:\users\朝^花\desktop\mike\holtek_c\componets\common\GPIO.c"
 299  0076  0FC0        	mov a,192
 299  0077  85D2 0001   	lorm a,[338]
 300  0079              #line 300 "c:\users\朝^花\desktop\mike\holtek_c\componets\common\GPIO.c"
 300  0079  0FF0        	mov a,240
 300  007A  06E9        	andm a,[105]
 301  007B              #line 301 "c:\users\朝^花\desktop\mike\holtek_c\componets\common\GPIO.c"
 301  007B  0F07        	mov a,7
 301  007C  05E9        	orm a,[105]
 301  007D              _L52:
 306  007D              #line 306 "c:\users\朝^花\desktop\mike\holtek_c\componets\common\GPIO.c"
 306  007D  3F69        	sz [105].6
 306  007E  2800     R  	jmp _L61
 308  007F              #line 308 "c:\users\朝^花\desktop\mike\holtek_c\componets\common\GPIO.c"
 308  007F  1167        	swapa [103]
 308  0080  0E0F        	and a,0fh
 308  0081  0080     E  	mov rd,a
 308  0082  1F00     E  	clr re
 308  0083  0768        	mov a,[104]
 308  0084  0080     E  	mov rb,a
 308  0085  1F00     E  	clr rc
 308  0086  0F04        	mov a,4
 308  0087              _LI42:
 308  0087  340A        	clr c
 308  0088  1A80     E  	rlc rb
 308  0089  1A80     E  	rlc rc
 308  008A  1785        	sdz acc
 308  008B  2800     R  	jmp _LI42
 308  008C  0700     E  	mov a,re
 308  008D  0580     E  	orm a,rc
 308  008E  0700     E  	mov a,rd
 308  008F  0580     E  	orm a,rb
 308  0090  0700     E  	mov a,rb
 308  0091  0080     R  	mov _adc[0],a
 308  0092  0700     E  	mov a,rc
 308  0093  0080     R  	mov _adc[1],a
 308  0094  1F05        	clr acc
 308  0095  3C00     R  	sz _adc[1].7
 308  0096  1F85        	set acc
 308  0097  0080     R  	mov _adc[2],a
 308  0098  0080     R  	mov _adc[3],a
 308  0099              _L61:
 311  0099              #line 311 "c:\users\朝^花\desktop\mike\holtek_c\componets\common\GPIO.c"
 311  0099  0700     R  	mov a,_adc[0]
 311  009A  0003        	ret
 311  009B              _gpioanalogRead endp
 311  009B              #line 311 "c:\users\朝^花\desktop\mike\holtek_c\componets\common\GPIO.c"
 311  009B              #pragma debug scope 1 1
  10  009B              #line 10 "c:\users\朝^花\desktop\mike\holtek_c\componets\common\GPIO.c"
  10  009B              public _adc
  10  0000              @HCCINIT0_adc .section 'data'
  10  0000  0004[       _adc	db 4 dup(0)
            00
            ]
"File: GPIO.c        Assembler  Version HGASM0202      Page 16

  10  0004              #pragma debug variable 14 1 _adc "adc"
  10  0004              
  10  0000              @HCCINIT .section 'data'
   8  0000              #line 8 "c:\users\朝^花\desktop\mike\holtek_c\componets\common\GPIO.c"
   8  0000              public _value3
   8  0000              @HCCINIT0_value3 .section 'data'
   8  0000              _value3	db 0
   8  0001              #pragma debug variable 8 1 _value3 "value3"
   8  0001              
   8  0000              @HCCINIT .section 'data'
   7  0000              #line 7 "c:\users\朝^花\desktop\mike\holtek_c\componets\common\GPIO.c"
   7  0000              public _value2
   7  0000              @HCCINIT0_value2 .section 'data'
   7  0000              _value2	db 0
   7  0001              #pragma debug variable 8 1 _value2 "value2"
   7  0001              
   7  0000              @HCCINIT .section 'data'
   6  0000              #line 6 "c:\users\朝^花\desktop\mike\holtek_c\componets\common\GPIO.c"
   6  0000              public _value1
   6  0000              @HCCINIT0_value1 .section 'data'
   6  0000              _value1	db 0
   6  0001              #pragma debug variable 8 1 _value1 "value1"
   6  0001              
   6  0000              @HCCINIT .section 'data'
   5  0000              #line 5 "c:\users\朝^花\desktop\mike\holtek_c\componets\common\GPIO.c"
   5  0000              public _value
   5  0000              @HCCINIT0_value .section 'data'
   5  0000              _value	db 0
   5  0001              #pragma debug variable 8 1 _value "value"
   5  0001              
   5  0000              @HCCINIT .section 'data'
   5  0000              #pragma debug struct_end
   5  0000              #pragma debug struct_end
   5  0000              #pragma debug union_end
   5  0000              #pragma debug union_end
   5  0000              #pragma debug variable 43 1 ___pa "__pa" 1
   5  0000              #pragma debug struct_end
   5  0000              #pragma debug struct_end
   5  0000              #pragma debug union_end
   5  0000              #pragma debug union_end
   5  0000              #pragma debug variable 45 1 ___pac "__pac" 1
   5  0000              #pragma debug struct_end
   5  0000              #pragma debug struct_end
   5  0000              #pragma debug union_end
   5  0000              #pragma debug union_end
   5  0000              #pragma debug variable 47 1 ___pb "__pb" 1
   5  0000              #pragma debug struct_end
   5  0000              #pragma debug struct_end
   5  0000              #pragma debug union_end
   5  0000              #pragma debug union_end
   5  0000              #pragma debug variable 49 1 ___pbc "__pbc" 1
   5  0000              #pragma debug struct_end
   5  0000              #pragma debug struct_end
   5  0000              #pragma debug union_end
   5  0000              #pragma debug union_end
   5  0000              #pragma debug variable 51 1 ___pc "__pc" 1
   5  0000              #pragma debug struct_end
   5  0000              #pragma debug struct_end
   5  0000              #pragma debug union_end
   5  0000              #pragma debug union_end
"File: GPIO.c        Assembler  Version HGASM0202      Page 17

   5  0000              #pragma debug variable 53 1 ___pcc "__pcc" 1
   5  0000              #pragma debug struct_end
   5  0000              #pragma debug struct_end
   5  0000              #pragma debug union_end
   5  0000              #pragma debug union_end
   5  0000              #pragma debug variable 55 1 ___pd "__pd" 1
   5  0000              #pragma debug struct_end
   5  0000              #pragma debug struct_end
   5  0000              #pragma debug union_end
   5  0000              #pragma debug union_end
   5  0000              #pragma debug variable 57 1 ___pdc "__pdc" 1
   5  0000              #pragma debug variable 8 1 ___sadol "__sadol" 1
   5  0000              #pragma debug variable 8 1 ___sadoh "__sadoh" 1
   5  0000              #pragma debug struct_end
   5  0000              #pragma debug struct_end
   5  0000              #pragma debug union_end
   5  0000              #pragma debug union_end
   5  0000              #pragma debug variable 59 1 ___sadc0 "__sadc0" 1
   5  0000              #pragma debug struct_end
   5  0000              #pragma debug struct_end
   5  0000              #pragma debug union_end
   5  0000              #pragma debug union_end
   5  0000              #pragma debug variable 61 1 ___sadc1 "__sadc1" 1
   5  0000              #pragma debug struct_end
   5  0000              #pragma debug struct_end
   5  0000              #pragma debug union_end
   5  0000              #pragma debug union_end
   5  0000              #pragma debug variable 63 1 ___sadc2 "__sadc2" 1
   5  0000              #pragma debug struct_end
   5  0000              #pragma debug struct_end
   5  0000              #pragma debug union_end
   5  0000              #pragma debug union_end
   5  0000              #pragma debug variable 65 1 ___pcs0 "__pcs0" 1
   5  0000              #pragma debug struct_end
   5  0000              #pragma debug struct_end
   5  0000              #pragma debug union_end
   5  0000              #pragma debug union_end
   5  0000              #pragma debug variable 67 1 ___pcs1 "__pcs1" 1
   5  0000              
   5  0000              ; 
   5  0000              ; Generated by holtek-gcc v3.19, Mon Aug 14 20:23:22 2023
   5  0000              ; Rebuild 718
   5  0000              ; end of file


        0 Errors, 0